; Function Attrs: mustprogress nofree norecurse nosync nounwind willreturn memory(read, inaccessiblemem: none) uwtable
define hidden noundef nonnull ptr @_ZN13BarrierStubC25entryEv(ptr noundef nonnull readnone align 8 dereferenceable(184) %0) local_unnamed_addr #1 align 2 {
  %2 = tail call align 8 ptr @llvm.threadlocal.address.p0(ptr align 8 @_ZN6Thread12_thr_currentE)
  %3 = load ptr, ptr %2, align 8
  %4 = getelementptr inbounds i8, ptr %3, i64 1808
  %5 = load ptr, ptr %4, align 8
  %6 = getelementptr inbounds i8, ptr %5, i64 128
  %7 = load ptr, ptr %6, align 8
  %8 = getelementptr inbounds i8, ptr %7, i64 2288
  %9 = load ptr, ptr %8, align 8
  %10 = getelementptr inbounds i8, ptr %9, i64 572
  %11 = load i8, ptr %10, align 4
  %12 = trunc i8 %11 to i1
  %.v = select i1 %12, i64 48, i64 8
  %13 = getelementptr inbounds i8, ptr %0, i64 %.v
  ret ptr %13
}